#include <math.h>
#include <stdio.h>
#include <stdlib.h>
#include <string.h>

int main()
{
int n,i;
void reverse(int num);

for(i=0;i<6;i++)
{
	scanf("%d",&n);
	reverse(n);
}

return 0;
}
void reverse(int num)
{
	int i,result,k;	

    if(num<0)
	{
		printf("-");
		num=num*-1;
		k=0;
			while(num/10!=0)
			{
				if(num%10!=0)
				{
					k=1;
				}
				if(k!=0)
				{
				printf("%d",num%10);
				}	num=num/10;
			}
			if(num<10&&num>0)
			{printf("%d\n",num);}
	}else if(num>0)
	{
       k=0;
		while(num/10!=0)
			{
			if(num%10!=0)
				{
					k=1;
				}
				if(k!=0)
				{
				printf("%d",num%10);
				
				}num=num/10;
			}
		if(num<10&&num>0)
			{printf("%d\n",num);}
	
	}else if(num==0)
	{
		printf("0");
	}

}
